target datalayout = "e-m:e-p270:32:32-p271:32:32-p272:64:64-i64:64-i128:128-f80:128-n8:16:32:64-S128"
target triple = "x86_64-pc-linux-gnu"

%"class.bParse::bFile" = type <{ ptr, [7 x i8], i8, ptr, i32, i32, %class.b3HashMap, i32, [4 x i8], ptr, ptr, %class.b3AlignedObjectArray.4, %class.b3AlignedObjectArray.4, %class.b3AlignedObjectArray.6, %class.b3HashMap.8, %class.b3HashMap, i32, [4 x i8] }>
%class.b3AlignedObjectArray.4 = type <{ [4 x i8], i32, i32, [4 x i8], ptr, i8, [7 x i8] }>
%class.b3AlignedObjectArray.6 = type <{ [4 x i8], i32, i32, [4 x i8], ptr, i8, [7 x i8] }>
%class.b3HashMap.8 = type { %class.b3AlignedObjectArray, %class.b3AlignedObjectArray, %class.b3AlignedObjectArray.6, %class.b3AlignedObjectArray.2 }
%class.b3AlignedObjectArray = type <{ [4 x i8], i32, i32, [4 x i8], ptr, i8, [7 x i8] }>
%class.b3AlignedObjectArray.2 = type <{ [4 x i8], i32, i32, [4 x i8], ptr, i8, [7 x i8] }>
%class.b3HashMap = type { %class.b3AlignedObjectArray, %class.b3AlignedObjectArray, %class.b3AlignedObjectArray.0, %class.b3AlignedObjectArray.2 }
%class.b3AlignedObjectArray.0 = type <{ [4 x i8], i32, i32, [4 x i8], ptr, i8, [7 x i8] }>
%struct.b3PointerUid = type { %union.anon.23 }
%union.anon.23 = type { ptr }

@.str.11 = private unnamed_addr constant [7 x i8] c"%d %d\0A\00", align 1

; Function Attrs: mustprogress uwtable
define dso_local void @_ZN6bParse5bFile11safeSwapPtrEPcPKc(ptr noundef nonnull align 8 dereferenceable(540) %0, ptr noundef %1, ptr noundef %2) #0 align 2 {
  %4 = alloca ptr, align 8
  %5 = alloca ptr, align 8
  %6 = alloca ptr, align 8
  %7 = alloca i32, align 4
  %8 = alloca i32, align 4
  %9 = alloca ptr, align 8
  %10 = alloca ptr, align 8
  %11 = alloca i64, align 8
  %12 = alloca i8, align 1
  %13 = alloca ptr, align 8
  %14 = alloca ptr, align 8
  %15 = alloca ptr, align 8
  store ptr %0, ptr %4, align 8, !tbaa !16
  store ptr %1, ptr %5, align 8, !tbaa !4
  store ptr %2, ptr %6, align 8, !tbaa !4
  %16 = load ptr, ptr %4, align 8
  %17 = load ptr, ptr %6, align 8, !tbaa !4
  %18 = icmp ne ptr %17, null
  br i1 %18, label %19, label %22

19:                                               ; preds = %3
  %20 = load ptr, ptr %5, align 8, !tbaa !4
  %21 = icmp ne ptr %20, null
  br i1 %21, label %23, label %22

22:                                               ; preds = %19, %3
  br label %164

23:                                               ; preds = %19
  call void @llvm.lifetime.start.p0(i64 4, ptr %7) #16
  %24 = getelementptr inbounds nuw %"class.bParse::bFile", ptr %16, i32 0, i32 9
  %25 = load ptr, ptr %24, align 8, !tbaa !44
  %26 = call noundef i32 @_ZN6bParse4bDNA14getPointerSizeEv(ptr noundef nonnull align 8 dereferenceable(420) %25)
  store i32 %26, ptr %7, align 4, !tbaa !9
  call void @llvm.lifetime.start.p0(i64 4, ptr %8) #16
  %27 = getelementptr inbounds nuw %"class.bParse::bFile", ptr %16, i32 0, i32 10
  %28 = load ptr, ptr %27, align 8, !tbaa !45
  %29 = call noundef i32 @_ZN6bParse4bDNA14getPointerSizeEv(ptr noundef nonnull align 8 dereferenceable(420) %28)
  store i32 %29, ptr %8, align 4, !tbaa !9
  %30 = load i32, ptr %7, align 4, !tbaa !9
  %31 = load i32, ptr %8, align 4, !tbaa !9
  %32 = icmp eq i32 %30, %31
  br i1 %32, label %33, label %38

33:                                               ; preds = %23
  %34 = load ptr, ptr %5, align 8, !tbaa !4
  %35 = load ptr, ptr %6, align 8, !tbaa !4
  %36 = load i32, ptr %8, align 4, !tbaa !9
  %37 = sext i32 %36 to i64
  call void @llvm.memcpy.p0.p0.i64(ptr align 1 %34, ptr align 1 %35, i64 %37, i1 false)
  br label %163

38:                                               ; preds = %23
  %39 = load i32, ptr %8, align 4, !tbaa !9
  %40 = icmp eq i32 %39, 4
  br i1 %40, label %41, label %122

41:                                               ; preds = %38
  %42 = load i32, ptr %7, align 4, !tbaa !9
  %43 = icmp eq i32 %42, 8
  br i1 %43, label %44, label %122

44:                                               ; preds = %41
  call void @llvm.lifetime.start.p0(i64 8, ptr %9) #16
  %45 = load ptr, ptr %6, align 8, !tbaa !4
  store ptr %45, ptr %9, align 8, !tbaa !143
  call void @llvm.lifetime.start.p0(i64 8, ptr %10) #16
  %46 = load ptr, ptr %5, align 8, !tbaa !4
  store ptr %46, ptr %10, align 8, !tbaa !143
  %47 = load ptr, ptr %9, align 8, !tbaa !143
  %48 = getelementptr inbounds nuw %struct.b3PointerUid, ptr %47, i32 0, i32 0
  %49 = getelementptr inbounds [2 x i32], ptr %48, i64 0, i64 0
  %50 = load i32, ptr %49, align 8, !tbaa !11
  %51 = load ptr, ptr %9, align 8, !tbaa !143
  %52 = getelementptr inbounds nuw %struct.b3PointerUid, ptr %51, i32 0, i32 0
  %53 = getelementptr inbounds [2 x i32], ptr %52, i64 0, i64 1
  %54 = load i32, ptr %53, align 4, !tbaa !11
  %55 = icmp eq i32 %50, %54
  br i1 %55, label %56, label %64

56:                                               ; preds = %44
  %57 = load ptr, ptr %9, align 8, !tbaa !143
  %58 = getelementptr inbounds nuw %struct.b3PointerUid, ptr %57, i32 0, i32 0
  %59 = getelementptr inbounds [2 x i32], ptr %58, i64 0, i64 0
  %60 = load i32, ptr %59, align 8, !tbaa !11
  %61 = load ptr, ptr %10, align 8, !tbaa !143
  %62 = getelementptr inbounds nuw %struct.b3PointerUid, ptr %61, i32 0, i32 0
  %63 = getelementptr inbounds [2 x i32], ptr %62, i64 0, i64 0
  store i32 %60, ptr %63, align 8, !tbaa !11
  br label %121

64:                                               ; preds = %44
  call void @llvm.lifetime.start.p0(i64 8, ptr %11) #16
  %65 = load ptr, ptr %6, align 8, !tbaa !4
  %66 = load i64, ptr %65, align 8, !tbaa !145
  store i64 %66, ptr %11, align 8, !tbaa !145
  %67 = getelementptr inbounds nuw %"class.bParse::bFile", ptr %16, i32 0, i32 16
  %68 = load i32, ptr %67, align 8, !tbaa !46
  %69 = and i32 %68, 4
  %70 = icmp ne i32 %69, 0
  br i1 %70, label %71, label %116

71:                                               ; preds = %64
  call void @llvm.lifetime.start.p0(i64 1, ptr %12) #16
  call void @llvm.lifetime.start.p0(i64 8, ptr %13) #16
  store ptr %11, ptr %13, align 8, !tbaa !4
  %72 = load ptr, ptr %13, align 8, !tbaa !4
  %73 = getelementptr inbounds i8, ptr %72, i64 0
  %74 = load i8, ptr %73, align 1, !tbaa !11
  store i8 %74, ptr %12, align 1, !tbaa !11
  %75 = load ptr, ptr %13, align 8, !tbaa !4
  %76 = getelementptr inbounds i8, ptr %75, i64 7
  %77 = load i8, ptr %76, align 1, !tbaa !11
  %78 = load ptr, ptr %13, align 8, !tbaa !4
  %79 = getelementptr inbounds i8, ptr %78, i64 0
  store i8 %77, ptr %79, align 1, !tbaa !11
  %80 = load i8, ptr %12, align 1, !tbaa !11
  %81 = load ptr, ptr %13, align 8, !tbaa !4
  %82 = getelementptr inbounds i8, ptr %81, i64 7
  store i8 %80, ptr %82, align 1, !tbaa !11
  %83 = load ptr, ptr %13, align 8, !tbaa !4
  %84 = getelementptr inbounds i8, ptr %83, i64 1
  %85 = load i8, ptr %84, align 1, !tbaa !11
  store i8 %85, ptr %12, align 1, !tbaa !11
  %86 = load ptr, ptr %13, align 8, !tbaa !4
  %87 = getelementptr inbounds i8, ptr %86, i64 6
  %88 = load i8, ptr %87, align 1, !tbaa !11
  %89 = load ptr, ptr %13, align 8, !tbaa !4
  %90 = getelementptr inbounds i8, ptr %89, i64 1
  store i8 %88, ptr %90, align 1, !tbaa !11
  %91 = load i8, ptr %12, align 1, !tbaa !11
  %92 = load ptr, ptr %13, align 8, !tbaa !4
  %93 = getelementptr inbounds i8, ptr %92, i64 6
  store i8 %91, ptr %93, align 1, !tbaa !11
  %94 = load ptr, ptr %13, align 8, !tbaa !4
  %95 = getelementptr inbounds i8, ptr %94, i64 2
  %96 = load i8, ptr %95, align 1, !tbaa !11
  store i8 %96, ptr %12, align 1, !tbaa !11
  %97 = load ptr, ptr %13, align 8, !tbaa !4
  %98 = getelementptr inbounds i8, ptr %97, i64 5
  %99 = load i8, ptr %98, align 1, !tbaa !11
  %100 = load ptr, ptr %13, align 8, !tbaa !4
  %101 = getelementptr inbounds i8, ptr %100, i64 2
  store i8 %99, ptr %101, align 1, !tbaa !11
  %102 = load i8, ptr %12, align 1, !tbaa !11
  %103 = load ptr, ptr %13, align 8, !tbaa !4
  %104 = getelementptr inbounds i8, ptr %103, i64 5
  store i8 %102, ptr %104, align 1, !tbaa !11
  %105 = load ptr, ptr %13, align 8, !tbaa !4
  %106 = getelementptr inbounds i8, ptr %105, i64 3
  %107 = load i8, ptr %106, align 1, !tbaa !11
  store i8 %107, ptr %12, align 1, !tbaa !11
  %108 = load ptr, ptr %13, align 8, !tbaa !4
  %109 = getelementptr inbounds i8, ptr %108, i64 4
  %110 = load i8, ptr %109, align 1, !tbaa !11
  %111 = load ptr, ptr %13, align 8, !tbaa !4
  %112 = getelementptr inbounds i8, ptr %111, i64 3
  store i8 %110, ptr %112, align 1, !tbaa !11
  %113 = load i8, ptr %12, align 1, !tbaa !11
  %114 = load ptr, ptr %13, align 8, !tbaa !4
  %115 = getelementptr inbounds i8, ptr %114, i64 4
  store i8 %113, ptr %115, align 1, !tbaa !11
  call void @llvm.lifetime.end.p0(i64 8, ptr %13) #16
  call void @llvm.lifetime.end.p0(i64 1, ptr %12) #16
  br label %116

116:                                              ; preds = %71, %64
  %117 = load i64, ptr %11, align 8, !tbaa !145
  %118 = ashr i64 %117, 3
  %119 = trunc i64 %118 to i32
  %120 = load ptr, ptr %5, align 8, !tbaa !4
  store i32 %119, ptr %120, align 4, !tbaa !9
  call void @llvm.lifetime.end.p0(i64 8, ptr %11) #16
  br label %121

121:                                              ; preds = %116, %56
  call void @llvm.lifetime.end.p0(i64 8, ptr %10) #16
  call void @llvm.lifetime.end.p0(i64 8, ptr %9) #16
  br label %162

122:                                              ; preds = %41, %38
  %123 = load i32, ptr %8, align 4, !tbaa !9
  %124 = icmp eq i32 %123, 8
  br i1 %124, label %125, label %157

125:                                              ; preds = %122
  %126 = load i32, ptr %7, align 4, !tbaa !9
  %127 = icmp eq i32 %126, 4
  br i1 %127, label %128, label %157

128:                                              ; preds = %125
  call void @llvm.lifetime.start.p0(i64 8, ptr %14) #16
  %129 = load ptr, ptr %6, align 8, !tbaa !4
  store ptr %129, ptr %14, align 8, !tbaa !143
  call void @llvm.lifetime.start.p0(i64 8, ptr %15) #16
  %130 = load ptr, ptr %5, align 8, !tbaa !4
  store ptr %130, ptr %15, align 8, !tbaa !143
  %131 = load ptr, ptr %14, align 8, !tbaa !143
  %132 = getelementptr inbounds nuw %struct.b3PointerUid, ptr %131, i32 0, i32 0
  %133 = getelementptr inbounds [2 x i32], ptr %132, i64 0, i64 0
  %134 = load i32, ptr %133, align 8, !tbaa !11
  %135 = load ptr, ptr %14, align 8, !tbaa !143
  %136 = getelementptr inbounds nuw %struct.b3PointerUid, ptr %135, i32 0, i32 0
  %137 = getelementptr inbounds [2 x i32], ptr %136, i64 0, i64 1
  %138 = load i32, ptr %137, align 4, !tbaa !11
  %139 = icmp eq i32 %134, %138
  br i1 %139, label %140, label %151

140:                                              ; preds = %128
  %141 = load ptr, ptr %14, align 8, !tbaa !143
  %142 = getelementptr inbounds nuw %struct.b3PointerUid, ptr %141, i32 0, i32 0
  %143 = getelementptr inbounds [2 x i32], ptr %142, i64 0, i64 0
  %144 = load i32, ptr %143, align 8, !tbaa !11
  %145 = load ptr, ptr %15, align 8, !tbaa !143
  %146 = getelementptr inbounds nuw %struct.b3PointerUid, ptr %145, i32 0, i32 0
  %147 = getelementptr inbounds [2 x i32], ptr %146, i64 0, i64 0
  store i32 %144, ptr %147, align 8, !tbaa !11
  %148 = load ptr, ptr %15, align 8, !tbaa !143
  %149 = getelementptr inbounds nuw %struct.b3PointerUid, ptr %148, i32 0, i32 0
  %150 = getelementptr inbounds [2 x i32], ptr %149, i64 0, i64 1
  store i32 0, ptr %150, align 4, !tbaa !11
  br label %156

151:                                              ; preds = %128
  %152 = load ptr, ptr %6, align 8, !tbaa !4
  %153 = load i32, ptr %152, align 4, !tbaa !9
  %154 = sext i32 %153 to i64
  %155 = load ptr, ptr %5, align 8, !tbaa !4
  store i64 %154, ptr %155, align 8, !tbaa !145
  br label %156

156:                                              ; preds = %151, %140
  call void @llvm.lifetime.end.p0(i64 8, ptr %15) #16
  call void @llvm.lifetime.end.p0(i64 8, ptr %14) #16
  br label %161

157:                                              ; preds = %125, %122
  %158 = load i32, ptr %7, align 4, !tbaa !9
  %159 = load i32, ptr %8, align 4, !tbaa !9
  %160 = call i32 (ptr, ...) @printf(ptr noundef @.str.11, i32 noundef %158, i32 noundef %159)
  br label %161

161:                                              ; preds = %157, %156
  br label %162

162:                                              ; preds = %161, %121
  br label %163

163:                                              ; preds = %162, %33
  call void @llvm.lifetime.end.p0(i64 4, ptr %8) #16
  call void @llvm.lifetime.end.p0(i64 4, ptr %7) #16
  br label %164

164:                                              ; preds = %163, %22
  ret void
}