; Function Attrs: mustprogress uwtable
define dso_local void @_ZN6bParse5bFile11safeSwapPtrEPcPKc(ptr noundef nonnull readonly align 8 captures(none) dereferenceable(540) %0, ptr noundef writeonly captures(address_is_null) %1, ptr noundef readonly captures(address_is_null) %2) local_unnamed_addr #3 align 2 {
  %4 = icmp ne ptr %2, null
  %5 = icmp ne ptr %1, null
  %or.cond = and i1 %5, %4
  br i1 %or.cond, label %6, label %48

6:                                                ; preds = %3
  %7 = getelementptr inbounds nuw i8, ptr %0, i64 168
  %8 = load ptr, ptr %7, align 8, !tbaa !65
  %9 = tail call noundef i32 @_ZN6bParse4bDNA14getPointerSizeEv(ptr noundef nonnull align 8 dereferenceable(420) %8)
  %10 = getelementptr inbounds nuw i8, ptr %0, i64 176
  %11 = load ptr, ptr %10, align 8, !tbaa !64
  %12 = tail call noundef i32 @_ZN6bParse4bDNA14getPointerSizeEv(ptr noundef nonnull align 8 dereferenceable(420) %11)
  %13 = icmp eq i32 %9, %12
  br i1 %13, label %14, label %16

14:                                               ; preds = %6
  %15 = sext i32 %9 to i64
  tail call void @llvm.memcpy.p0.p0.i64(ptr nonnull align 1 %1, ptr nonnull align 1 %2, i64 %15, i1 false)
  br label %48

16:                                               ; preds = %6
  %17 = icmp eq i32 %12, 4
  %18 = icmp eq i32 %9, 8
  %or.cond3 = and i1 %18, %17
  br i1 %or.cond3, label %19, label %34

19:                                               ; preds = %16
  %20 = load i32, ptr %2, align 8, !tbaa !4
  %21 = getelementptr inbounds nuw i8, ptr %2, i64 4
  %22 = load i32, ptr %21, align 4, !tbaa !4
  %23 = icmp eq i32 %20, %22
  br i1 %23, label %24, label %25

24:                                               ; preds = %19
  store i32 %20, ptr %1, align 8, !tbaa !4
  br label %48

25:                                               ; preds = %19
  %26 = load i64, ptr %2, align 8, !tbaa !137
  %.sroa.6.0.extract.shift = lshr i64 %26, 8
  %.sroa.8.0.extract.shift = lshr i64 %26, 16
  %.sroa.10.0.extract.shift = lshr i64 %26, 24
  %.sroa.12.0.extract.shift = lshr i64 %26, 32
  %.sroa.18.0.extract.shift = lshr i64 %26, 56
  %27 = getelementptr inbounds nuw i8, ptr %0, i64 536
  %28 = load i32, ptr %27, align 8, !tbaa !56
  %29 = and i32 %28, 4
  %.not = icmp eq i32 %29, 0
  br i1 %.not, label %31, label %30

30:                                               ; preds = %25
  %.sroa.16.0.extract.shift = lshr i64 %26, 48
  %.sroa.14.0.extract.shift = lshr i64 %26, 40
  br label %31

31:                                               ; preds = %30, %25
  %.sroa.18.0 = phi i64 [ 0, %30 ], [ %.sroa.18.0.extract.shift, %25 ]
  %.sroa.12.0 = phi i64 [ %.sroa.10.0.extract.shift, %30 ], [ %.sroa.12.0.extract.shift, %25 ]
  %.sroa.10.0.in = phi i64 [ %.sroa.12.0.extract.shift, %30 ], [ %.sroa.10.0.extract.shift, %25 ]
  %.sroa.8.0.in = phi i64 [ %.sroa.14.0.extract.shift, %30 ], [ %.sroa.8.0.extract.shift, %25 ]
  %.sroa.6.0.in = phi i64 [ %.sroa.16.0.extract.shift, %30 ], [ %.sroa.6.0.extract.shift, %25 ]
  %.sroa.0.0.in = phi i64 [ %.sroa.18.0.extract.shift, %30 ], [ %26, %25 ]
  %.sroa.18.0.insert.shift = shl nuw i64 %.sroa.18.0, 56
  %.sroa.12.0.insert.ext = shl i64 %.sroa.12.0, 32
  %.sroa.12.0.insert.shift = and i64 %.sroa.12.0.insert.ext, 1095216660480
  %.sroa.12.0.insert.insert = or disjoint i64 %.sroa.18.0.insert.shift, %.sroa.12.0.insert.shift
  %.sroa.10.0.insert.ext = shl nuw i64 %.sroa.10.0.in, 24
  %.sroa.10.0.insert.shift = and i64 %.sroa.10.0.insert.ext, 4278190080
  %.sroa.10.0.insert.insert = or disjoint i64 %.sroa.12.0.insert.insert, %.sroa.10.0.insert.shift
  %.sroa.8.0.insert.ext = shl nuw i64 %.sroa.8.0.in, 16
  %.sroa.8.0.insert.shift = and i64 %.sroa.8.0.insert.ext, 16711680
  %.sroa.6.0.insert.ext = shl nuw i64 %.sroa.6.0.in, 8
  %.sroa.6.0.insert.shift = and i64 %.sroa.6.0.insert.ext, 65280
  %.sroa.6.0.insert.mask = or disjoint i64 %.sroa.10.0.insert.insert, %.sroa.8.0.insert.shift
  %.sroa.0.0.insert.ext = and i64 %.sroa.0.0.in, 248
  %.sroa.0.0.insert.mask = or disjoint i64 %.sroa.6.0.insert.mask, %.sroa.6.0.insert.shift
  %.sroa.0.0.insert.insert = or disjoint i64 %.sroa.0.0.insert.mask, %.sroa.0.0.insert.ext
  %32 = lshr exact i64 %.sroa.0.0.insert.insert, 3
  %33 = trunc i64 %32 to i32
  store i32 %33, ptr %1, align 4, !tbaa !76
  br label %48

34:                                               ; preds = %16
  %35 = icmp eq i32 %12, 8
  %36 = icmp eq i32 %9, 4
  %or.cond5 = and i1 %36, %35
  br i1 %or.cond5, label %37, label %46

37:                                               ; preds = %34
  %38 = load i32, ptr %2, align 8, !tbaa !4
  %39 = getelementptr inbounds nuw i8, ptr %2, i64 4
  %40 = load i32, ptr %39, align 4, !tbaa !4
  %41 = icmp eq i32 %38, %40
  br i1 %41, label %42, label %44

42:                                               ; preds = %37
  store i32 %38, ptr %1, align 8, !tbaa !4
  %43 = getelementptr inbounds nuw i8, ptr %1, i64 4
  store i32 0, ptr %43, align 4, !tbaa !4
  br label %48

44:                                               ; preds = %37
  %45 = sext i32 %38 to i64
  store i64 %45, ptr %1, align 8, !tbaa !137
  br label %48

46:                                               ; preds = %34
  %47 = tail call i32 (ptr, ...) @printf(ptr noundef nonnull dereferenceable(1) @.str.11, i32 noundef %9, i32 noundef %12)
  br label %48

48:                                               ; preds = %14, %46, %31, %24, %44, %42, %3
  ret void
}